; Function Attrs: mustprogress nofree norecurse nosync nounwind memory(argmem: readwrite) uwtable
define void @_ZN2cv11RNG_MT19937C2Ev(ptr nocapture noundef nonnull align 4 dereferenceable(2500) %0) unnamed_addr #7 align 2 {
  store i32 5489, ptr %0, align 4
  %2 = getelementptr inbounds i8, ptr %0, i64 2496
  store i32 1, ptr %2, align 4
  br label %3

3:                                                ; preds = %3, %1
  %storemerge1.i = phi i32 [ 1, %1 ], [ %15, %3 ]
  %4 = add nsw i32 %storemerge1.i, -1
  %5 = sext i32 %4 to i64
  %6 = getelementptr inbounds [624 x i32], ptr %0, i64 0, i64 %5
  %7 = load i32, ptr %6, align 4
  %8 = lshr i32 %7, 30
  %9 = xor i32 %8, %7
  %10 = mul i32 %9, 1812433253
  %11 = add i32 %10, %storemerge1.i
  %12 = sext i32 %storemerge1.i to i64
  %13 = getelementptr inbounds [624 x i32], ptr %0, i64 0, i64 %12
  store i32 %11, ptr %13, align 4
  %14 = load i32, ptr %2, align 4
  %15 = add nsw i32 %14, 1
  store i32 %15, ptr %2, align 4
  %16 = icmp slt i32 %14, 623
  br i1 %16, label %3, label %_ZN2cv11RNG_MT199374seedEj.exit, !llvm.loop !76

_ZN2cv11RNG_MT199374seedEj.exit:                  ; preds = %3
  ret void
}